; Function Attrs: nounwind uwtable
define range(i32 -1, 1) i32 @H5F__free(ptr noundef %0, i32 noundef %1, i64 noundef %2, i64 noundef %3) local_unnamed_addr #0 {
  %5 = load i8, ptr @H5F_init_g, align 1, !tbaa !3, !range !7, !noundef !8
  %6 = trunc nuw i8 %5 to i1
  %7 = load i8, ptr @H5_libterm_g, align 1, !range !7
  %8 = trunc nuw i8 %7 to i1
  %9 = xor i1 %8, true
  %10 = select i1 %6, i1 true, i1 %9
  br i1 %10, label %11, label %28, !prof !9

11:                                               ; preds = %4
  %12 = getelementptr inbounds nuw i8, ptr %0, i64 16
  %13 = load ptr, ptr %12, align 8, !tbaa !10
  %14 = load ptr, ptr %13, align 8, !tbaa !42
  %15 = tail call i32 @H5FD_free(ptr noundef %14, i32 noundef %1, ptr noundef %0, i64 noundef %2, i64 noundef %3) #2
  %16 = icmp slt i32 %15, 0
  br i1 %16, label %17, label %21

17:                                               ; preds = %11
  %18 = load i64, ptr @H5E_FILE_g, align 8, !tbaa !40
  %19 = load i64, ptr @H5E_CANTFREE_g, align 8, !tbaa !40
  %20 = tail call i32 (ptr, ptr, i32, i64, i64, ptr, ...) @H5E_printf_stack(ptr noundef nonnull @.str, ptr noundef nonnull @__func__.H5F__free, i32 noundef 151, i64 noundef %18, i64 noundef %19, ptr noundef nonnull @.str.5) #2
  br label %28

21:                                               ; preds = %11
  %22 = tail call i32 @H5F_eoa_dirty(ptr noundef nonnull %0) #2
  %23 = icmp slt i32 %22, 0
  br i1 %23, label %24, label %28

24:                                               ; preds = %21
  %25 = load i64, ptr @H5E_FILE_g, align 8, !tbaa !40
  %26 = load i64, ptr @H5E_CANTMARKDIRTY_g, align 8, !tbaa !40
  %27 = tail call i32 (ptr, ptr, i32, i64, i64, ptr, ...) @H5E_printf_stack(ptr noundef nonnull @.str, ptr noundef nonnull @__func__.H5F__free, i32 noundef 155, i64 noundef %25, i64 noundef %26, ptr noundef nonnull @.str.4) #2
  br label %28

28:                                               ; preds = %17, %24, %21, %4
  %.0 = phi i32 [ -1, %17 ], [ -1, %24 ], [ 0, %21 ], [ 0, %4 ]
  ret i32 %.0
}